target datalayout = "e-m:e-p270:32:32-p271:32:32-p272:64:64-i64:64-i128:128-f80:128-n8:16:32:64-S128"
target triple = "x86_64-unknown-linux-gnu"

%struct.timeval = type { i64, i64 }

@trace_events_enabled_count = external global i32, align 4
@message_with_timestamp = external global i8, align 1
@qemu_loglevel = external global i32, align 4
@_TRACE_E1000X_LINK_NEGOTIATION_START_DSTATE = external global i16, align 2
@.str.20 = private unnamed_addr constant [72 x i8] c"%d@%zu.%06zu:e1000x_link_negotiation_start Start link auto negotiation\0A\00", align 1
@.str.21 = private unnamed_addr constant [59 x i8] c"e1000x_link_negotiation_start Start link auto negotiation\0A\00", align 1

; Function Attrs: nounwind sspstrong uwtable
define internal zeroext i1 @qemu_loglevel_mask(i32 noundef %mask) #0 {
entry:
  %mask.addr = alloca i32, align 4
  store i32 %mask, ptr %mask.addr, align 4
  %0 = load i32, ptr @qemu_loglevel, align 4
  %1 = load i32, ptr %mask.addr, align 4
  %and = and i32 %0, %1
  %cmp = icmp ne i32 %and, 0
  ret i1 %cmp
}

; Function Attrs: nounwind sspstrong uwtable
define internal void @_nocheck__trace_e1000x_link_negotiation_start() #0 {
entry:
  %_now = alloca %struct.timeval, align 8
  %0 = load i32, ptr @trace_events_enabled_count, align 4
  %tobool = icmp ne i32 %0, 0
  %lnot = xor i1 %tobool, true
  %lnot1 = xor i1 %lnot, true
  %lnot.ext = zext i1 %lnot1 to i32
  %conv = sext i32 %lnot.ext to i64
  %tobool2 = icmp ne i64 %conv, 0
  br i1 %tobool2, label %land.lhs.true, label %if.end11

land.lhs.true:                                    ; preds = %entry
  %1 = load i16, ptr @_TRACE_E1000X_LINK_NEGOTIATION_START_DSTATE, align 2
  %conv3 = zext i16 %1 to i32
  %tobool4 = icmp ne i32 %conv3, 0
  br i1 %tobool4, label %land.lhs.true5, label %if.end11

land.lhs.true5:                                   ; preds = %land.lhs.true
  %call = call zeroext i1 @qemu_loglevel_mask(i32 noundef 32768)
  br i1 %call, label %if.then, label %if.end11

if.then:                                          ; preds = %land.lhs.true5
  %2 = load i8, ptr @message_with_timestamp, align 1
  %tobool7 = trunc i8 %2 to i1
  br i1 %tobool7, label %if.then8, label %if.else

if.then8:                                         ; preds = %if.then
  %call9 = call i32 @gettimeofday(ptr noundef %_now, ptr noundef null) #7
  %call10 = call i32 @qemu_get_thread_id()
  %tv_sec = getelementptr inbounds %struct.timeval, ptr %_now, i32 0, i32 0
  %3 = load i64, ptr %tv_sec, align 8
  %tv_usec = getelementptr inbounds %struct.timeval, ptr %_now, i32 0, i32 1
  %4 = load i64, ptr %tv_usec, align 8
  call void (ptr, ...) @qemu_log(ptr noundef @.str.20, i32 noundef %call10, i64 noundef %3, i64 noundef %4)
  br label %if.end

if.else:                                          ; preds = %if.then
  call void (ptr, ...) @qemu_log(ptr noundef @.str.21)
  br label %if.end

if.end:                                           ; preds = %if.else, %if.then8
  br label %if.end11

if.end11:                                         ; preds = %if.end, %land.lhs.true5, %land.lhs.true, %entry
  ret void
}

; Function Attrs: nounwind sspstrong uwtable
define internal i64 @qemu_clock_get_ms(i32 noundef %type) #0 {
entry:
  %type.addr = alloca i32, align 4
  store i32 %type, ptr %type.addr, align 4
  %0 = load i32, ptr %type.addr, align 4
  %call = call i64 @qemu_clock_get_ns(i32 noundef %0)
  %div = sdiv i64 %call, 1000000
  ret i64 %div
}

; Function Attrs: nounwind sspstrong uwtable
define internal void @trace_e1000x_link_negotiation_start() #0 {
entry:
  call void @_nocheck__trace_e1000x_link_negotiation_start()
  ret void
}

; Function Attrs: nounwind sspstrong uwtable
define internal void @e1000x_update_regs_on_link_down(ptr noundef %mac, ptr noundef %phy) #0 {
entry:
  %mac.addr = alloca ptr, align 8
  %phy.addr = alloca ptr, align 8
  store ptr %mac, ptr %mac.addr, align 8
  store ptr %phy, ptr %phy.addr, align 8
  %0 = load ptr, ptr %mac.addr, align 8
  %arrayidx = getelementptr i32, ptr %0, i64 2
  %1 = load i32, ptr %arrayidx, align 4
  %and = and i32 %1, -3
  store i32 %and, ptr %arrayidx, align 4
  %2 = load ptr, ptr %phy.addr, align 8
  %arrayidx1 = getelementptr i16, ptr %2, i64 1
  %3 = load i16, ptr %arrayidx1, align 2
  %conv = zext i16 %3 to i32
  %and2 = and i32 %conv, -5
  %conv3 = trunc i32 %and2 to i16
  store i16 %conv3, ptr %arrayidx1, align 2
  %4 = load ptr, ptr %phy.addr, align 8
  %arrayidx4 = getelementptr i16, ptr %4, i64 1
  %5 = load i16, ptr %arrayidx4, align 2
  %conv5 = zext i16 %5 to i32
  %and6 = and i32 %conv5, -33
  %conv7 = trunc i32 %and6 to i16
  store i16 %conv7, ptr %arrayidx4, align 2
  %6 = load ptr, ptr %phy.addr, align 8
  %arrayidx8 = getelementptr i16, ptr %6, i64 5
  %7 = load i16, ptr %arrayidx8, align 2
  %conv9 = zext i16 %7 to i32
  %and10 = and i32 %conv9, -16385
  %conv11 = trunc i32 %and10 to i16
  store i16 %conv11, ptr %arrayidx8, align 2
  ret void
}

; Function Attrs: nounwind sspstrong uwtable
define dso_local void @e1000x_restart_autoneg(ptr noundef %mac, ptr noundef %phy, ptr noundef %timer) #0 {
entry:
  %mac.addr = alloca ptr, align 8
  %phy.addr = alloca ptr, align 8
  %timer.addr = alloca ptr, align 8
  store ptr %mac, ptr %mac.addr, align 8
  store ptr %phy, ptr %phy.addr, align 8
  store ptr %timer, ptr %timer.addr, align 8
  %0 = load ptr, ptr %mac.addr, align 8
  %1 = load ptr, ptr %phy.addr, align 8
  call void @e1000x_update_regs_on_link_down(ptr noundef %0, ptr noundef %1)
  call void @trace_e1000x_link_negotiation_start()
  %2 = load ptr, ptr %timer.addr, align 8
  %call = call i64 @qemu_clock_get_ms(i32 noundef 1)
  %add = add i64 %call, 500
  call void @timer_mod(ptr noundef %2, i64 noundef %add)
  ret void
}