; Function Attrs: nounwind sspstrong uwtable
define dso_local void @e1000x_restart_autoneg(ptr noundef captures(none) %mac, ptr noundef captures(none) %phy, ptr noundef %timer) local_unnamed_addr #0 {
entry:
  %_now.i.i = alloca %struct.timeval, align 8
  %arrayidx.i = getelementptr i8, ptr %mac, i64 8
  %0 = load i32, ptr %arrayidx.i, align 4
  %and.i = and i32 %0, -3
  store i32 %and.i, ptr %arrayidx.i, align 4
  %arrayidx1.i = getelementptr i8, ptr %phy, i64 2
  %1 = load i16, ptr %arrayidx1.i, align 2
  %2 = and i16 %1, -37
  store i16 %2, ptr %arrayidx1.i, align 2
  %arrayidx8.i = getelementptr i8, ptr %phy, i64 10
  %3 = load i16, ptr %arrayidx8.i, align 2
  %4 = and i16 %3, -16385
  store i16 %4, ptr %arrayidx8.i, align 2
  call void @llvm.lifetime.start.p0(i64 16, ptr nonnull %_now.i.i)
  %5 = load i32, ptr @trace_events_enabled_count, align 4
  %tobool.i.i = icmp ne i32 %5, 0
  %6 = load i16, ptr @_TRACE_E1000X_LINK_NEGOTIATION_START_DSTATE, align 2
  %tobool4.i.i = icmp ne i16 %6, 0
  %or.cond.i.i = select i1 %tobool.i.i, i1 %tobool4.i.i, i1 false
  br i1 %or.cond.i.i, label %land.lhs.true5.i.i, label %trace_e1000x_link_negotiation_start.exit

land.lhs.true5.i.i:                               ; preds = %entry
  %7 = load i32, ptr @qemu_loglevel, align 4
  %and.i.i.i = and i32 %7, 32768
  %cmp.i.not.i.i = icmp eq i32 %and.i.i.i, 0
  br i1 %cmp.i.not.i.i, label %trace_e1000x_link_negotiation_start.exit, label %if.then.i.i

if.then.i.i:                                      ; preds = %land.lhs.true5.i.i
  %8 = load i8, ptr @message_with_timestamp, align 1
  %tobool7.i.i = trunc i8 %8 to i1
  br i1 %tobool7.i.i, label %if.then8.i.i, label %if.else.i.i

if.then8.i.i:                                     ; preds = %if.then.i.i
  %call9.i.i = call i32 @gettimeofday(ptr noundef nonnull %_now.i.i, ptr noundef null) #11
  %call10.i.i = tail call i32 @qemu_get_thread_id() #11
  %9 = load i64, ptr %_now.i.i, align 8
  %tv_usec.i.i = getelementptr inbounds nuw i8, ptr %_now.i.i, i64 8
  %10 = load i64, ptr %tv_usec.i.i, align 8
  tail call void (ptr, ...) @qemu_log(ptr noundef nonnull @.str.20, i32 noundef %call10.i.i, i64 noundef %9, i64 noundef %10) #11
  br label %trace_e1000x_link_negotiation_start.exit

if.else.i.i:                                      ; preds = %if.then.i.i
  tail call void (ptr, ...) @qemu_log(ptr noundef nonnull @.str.21) #11
  br label %trace_e1000x_link_negotiation_start.exit

trace_e1000x_link_negotiation_start.exit:         ; preds = %entry, %land.lhs.true5.i.i, %if.then8.i.i, %if.else.i.i
  call void @llvm.lifetime.end.p0(i64 16, ptr nonnull %_now.i.i)
  %call.i = tail call i64 @qemu_clock_get_ns(i32 noundef 1) #11
  %div.i = sdiv i64 %call.i, 1000000
  %add = add nsw i64 %div.i, 500
  tail call void @timer_mod(ptr noundef %timer, i64 noundef %add) #11
  ret void
}